target datalayout = "e-m:e-p270:32:32-p271:32:32-p272:64:64-i64:64-i128:128-f80:128-n8:16:32:64-S128"
target triple = "x86_64-pc-linux-gnu"

%struct.Agobj_s = type { %struct.Agtag_s, ptr }
%struct.Agtag_s = type { i32, i64 }
%struct.Agraphinfo_t = type { %struct.Agrec_s, ptr, ptr, %struct.boxf, [4 x %struct.pointf_s], i8, i8, i8, i8, i32, double, double, i16, ptr, ptr, ptr, ptr, i32, ptr, ptr, ptr, ptr, i16, i16, i32, ptr, ptr, ptr, ptr, ptr, i32, ptr, ptr, %struct.nlist_t, ptr, ptr, i32, i32, i8, i8, i32, i32, i32, ptr, ptr, ptr, ptr, i8, i8, i8, i8, i8 }
%struct.Agrec_s = type { ptr, ptr }
%struct.boxf = type { %struct.pointf_s, %struct.pointf_s }
%struct.pointf_s = type { double, double }
%struct.nlist_t = type { ptr, i64 }

; Function Attrs: nounwind uwtable
define internal void @scale_bb(ptr noundef %0, double noundef %1, double noundef %2) #0 {
  %4 = alloca ptr, align 8
  %5 = alloca double, align 8
  %6 = alloca double, align 8
  %7 = alloca i32, align 4
  store ptr %0, ptr %4, align 8, !tbaa !3
  store double %1, ptr %5, align 8, !tbaa !39
  store double %2, ptr %6, align 8, !tbaa !39
  call void @llvm.lifetime.start.p0(i64 4, ptr %7) #11
  store i32 1, ptr %7, align 4, !tbaa !36
  br label %8

8:                                                ; preds = %28, %3
  %9 = load i32, ptr %7, align 4, !tbaa !36
  %10 = load ptr, ptr %4, align 8, !tbaa !3
  %11 = getelementptr inbounds nuw %struct.Agobj_s, ptr %10, i32 0, i32 1
  %12 = load ptr, ptr %11, align 8, !tbaa !8
  %13 = getelementptr inbounds nuw %struct.Agraphinfo_t, ptr %12, i32 0, i32 24
  %14 = load i32, ptr %13, align 4, !tbaa !173
  %15 = icmp sle i32 %9, %14
  br i1 %15, label %16, label %31

16:                                               ; preds = %8
  %17 = load ptr, ptr %4, align 8, !tbaa !3
  %18 = getelementptr inbounds nuw %struct.Agobj_s, ptr %17, i32 0, i32 1
  %19 = load ptr, ptr %18, align 8, !tbaa !8
  %20 = getelementptr inbounds nuw %struct.Agraphinfo_t, ptr %19, i32 0, i32 25
  %21 = load ptr, ptr %20, align 8, !tbaa !177
  %22 = load i32, ptr %7, align 4, !tbaa !36
  %23 = sext i32 %22 to i64
  %24 = getelementptr inbounds ptr, ptr %21, i64 %23
  %25 = load ptr, ptr %24, align 8, !tbaa !3
  %26 = load double, ptr %5, align 8, !tbaa !39
  %27 = load double, ptr %6, align 8, !tbaa !39
  call void @scale_bb(ptr noundef %25, double noundef %26, double noundef %27)
  br label %28

28:                                               ; preds = %16
  %29 = load i32, ptr %7, align 4, !tbaa !36
  %30 = add nsw i32 %29, 1
  store i32 %30, ptr %7, align 4, !tbaa !36
  br label %8, !llvm.loop !195

31:                                               ; preds = %8
  %32 = load double, ptr %5, align 8, !tbaa !39
  %33 = load ptr, ptr %4, align 8, !tbaa !3
  %34 = getelementptr inbounds nuw %struct.Agobj_s, ptr %33, i32 0, i32 1
  %35 = load ptr, ptr %34, align 8, !tbaa !8
  %36 = getelementptr inbounds nuw %struct.Agraphinfo_t, ptr %35, i32 0, i32 3
  %37 = getelementptr inbounds nuw %struct.boxf, ptr %36, i32 0, i32 0
  %38 = getelementptr inbounds nuw %struct.pointf_s, ptr %37, i32 0, i32 0
  %39 = load double, ptr %38, align 8, !tbaa !196
  %40 = fmul double %39, %32
  store double %40, ptr %38, align 8, !tbaa !196
  %41 = load double, ptr %6, align 8, !tbaa !39
  %42 = load ptr, ptr %4, align 8, !tbaa !3
  %43 = getelementptr inbounds nuw %struct.Agobj_s, ptr %42, i32 0, i32 1
  %44 = load ptr, ptr %43, align 8, !tbaa !8
  %45 = getelementptr inbounds nuw %struct.Agraphinfo_t, ptr %44, i32 0, i32 3
  %46 = getelementptr inbounds nuw %struct.boxf, ptr %45, i32 0, i32 0
  %47 = getelementptr inbounds nuw %struct.pointf_s, ptr %46, i32 0, i32 1
  %48 = load double, ptr %47, align 8, !tbaa !197
  %49 = fmul double %48, %41
  store double %49, ptr %47, align 8, !tbaa !197
  %50 = load double, ptr %5, align 8, !tbaa !39
  %51 = load ptr, ptr %4, align 8, !tbaa !3
  %52 = getelementptr inbounds nuw %struct.Agobj_s, ptr %51, i32 0, i32 1
  %53 = load ptr, ptr %52, align 8, !tbaa !8
  %54 = getelementptr inbounds nuw %struct.Agraphinfo_t, ptr %53, i32 0, i32 3
  %55 = getelementptr inbounds nuw %struct.boxf, ptr %54, i32 0, i32 1
  %56 = getelementptr inbounds nuw %struct.pointf_s, ptr %55, i32 0, i32 0
  %57 = load double, ptr %56, align 8, !tbaa !113
  %58 = fmul double %57, %50
  store double %58, ptr %56, align 8, !tbaa !113
  %59 = load double, ptr %6, align 8, !tbaa !39
  %60 = load ptr, ptr %4, align 8, !tbaa !3
  %61 = getelementptr inbounds nuw %struct.Agobj_s, ptr %60, i32 0, i32 1
  %62 = load ptr, ptr %61, align 8, !tbaa !8
  %63 = getelementptr inbounds nuw %struct.Agraphinfo_t, ptr %62, i32 0, i32 3
  %64 = getelementptr inbounds nuw %struct.boxf, ptr %63, i32 0, i32 1
  %65 = getelementptr inbounds nuw %struct.pointf_s, ptr %64, i32 0, i32 1
  %66 = load double, ptr %65, align 8, !tbaa !114
  %67 = fmul double %66, %59
  store double %67, ptr %65, align 8, !tbaa !114
  call void @llvm.lifetime.end.p0(i64 4, ptr %7) #11
  ret void
}