; Function Attrs: nofree nosync nounwind memory(readwrite, inaccessiblemem: none) uwtable
define internal fastcc void @scale_bb(ptr noundef readonly captures(none) %0, double noundef %1, double noundef %2) unnamed_addr #13 {
  %4 = getelementptr inbounds nuw i8, ptr %0, i64 16
  %5 = load ptr, ptr %4, align 8, !tbaa !3
  %6 = getelementptr inbounds nuw i8, ptr %5, i64 236
  %7 = load i32, ptr %6, align 4, !tbaa !112
  %.not14 = icmp slt i32 %7, 1
  br i1 %.not14, label %._crit_edge, label %.lr.ph

.lr.ph:                                           ; preds = %3, %.lr.ph
  %indvars.iv = phi i64 [ %indvars.iv.next, %.lr.ph ], [ 1, %3 ]
  %8 = phi ptr [ %13, %.lr.ph ], [ %5, %3 ]
  %9 = getelementptr inbounds nuw i8, ptr %8, i64 240
  %10 = load ptr, ptr %9, align 8, !tbaa !165
  %11 = getelementptr inbounds nuw ptr, ptr %10, i64 %indvars.iv
  %12 = load ptr, ptr %11, align 8, !tbaa !166
  tail call fastcc void @scale_bb(ptr noundef %12, double noundef %1, double noundef %2)
  %indvars.iv.next = add nuw nsw i64 %indvars.iv, 1
  %13 = load ptr, ptr %4, align 8, !tbaa !3
  %14 = getelementptr inbounds nuw i8, ptr %13, i64 236
  %15 = load i32, ptr %14, align 4, !tbaa !112
  %16 = sext i32 %15 to i64
  %.not.not = icmp slt i64 %indvars.iv, %16
  br i1 %.not.not, label %.lr.ph, label %._crit_edge, !llvm.loop !193

._crit_edge:                                      ; preds = %.lr.ph, %3
  %.lcssa = phi ptr [ %5, %3 ], [ %13, %.lr.ph ]
  %17 = getelementptr inbounds nuw i8, ptr %.lcssa, i64 32
  %18 = load double, ptr %17, align 8, !tbaa !190
  %19 = fmul double %1, %18
  store double %19, ptr %17, align 8, !tbaa !190
  %20 = getelementptr inbounds nuw i8, ptr %.lcssa, i64 40
  %21 = load double, ptr %20, align 8, !tbaa !194
  %22 = fmul double %2, %21
  store double %22, ptr %20, align 8, !tbaa !194
  %23 = getelementptr inbounds nuw i8, ptr %.lcssa, i64 48
  %24 = load double, ptr %23, align 8, !tbaa !191
  %25 = fmul double %1, %24
  store double %25, ptr %23, align 8, !tbaa !191
  %26 = getelementptr inbounds nuw i8, ptr %.lcssa, i64 56
  %27 = load double, ptr %26, align 8, !tbaa !195
  %28 = fmul double %2, %27
  store double %28, ptr %26, align 8, !tbaa !195
  ret void
}